(dp0
S'total_max_upload_rate'
p1
I0
sS'download_dir'
p2
V//sdcard/.ACEStream/.acestream_cache
p3
sS'total_max_download_rate'
p4
I0
sS'disk_cache_limit'
p5
L1942151168L
sS'live_cache_type'
p6
S'memory'
p7
sS'ad_storage_limit'
p8
L1073741824L
sS'max_peers'
p9
I50
s.