(dp0
S'fix_upload_slots'
p1
I01
sS'live_buffer_time'
p2
I10
sS'download_dir'
p3
Vc:
p4
sS'total_max_download_rate'
p5
I0
sS'enable_interruptable_ads'
p6
I01
sS'disk_cache_limit'
p7
L41875931136L
sS'init_upload_slots'
p8
I10
sS'ad_storage_limit'
p9
L1073741824L
sS'max_peers'
p10
I50
sS'max_connects'
p11
I500
sS'total_max_upload_rate'
p12
I0
sS'wait_sufficient_speed'
p13
I00
sS'player_buffer_time'
p14
I3
sS'auto_download_limit'
p15
I00
s.
